; Function Attrs: mustprogress uwtable
define hidden void @_ZNK15model_converter11display_delERSoP9func_decl(ptr nocapture noundef nonnull readonly align 8 dereferenceable(25) %this, ptr noundef nonnull align 8 dereferenceable(8) %out, ptr noundef %f) local_unnamed_addr #3 align 2 personality ptr @__gxx_personality_v0 {
entry:
  %ref.tmp = alloca %class.params_ref, align 8
  %m_env = getelementptr inbounds i8, ptr %this, i64 16
  %0 = load ptr, ptr %m_env, align 8
  %tobool.not = icmp eq ptr %0, null
  %call8 = tail call noundef nonnull align 8 dereferenceable(8) ptr @_ZStlsISt11char_traitsIcEERSt13basic_ostreamIcT_ES5_PKc(ptr noundef nonnull align 8 dereferenceable(8) %out, ptr noundef nonnull @.str.4)
  %m_name.i4 = getelementptr inbounds i8, ptr %f, i64 16
  br i1 %tobool.not, label %if.else, label %if.then

if.then:                                          ; preds = %entry
  %m_info.i.i = getelementptr inbounds i8, ptr %f, i64 24
  %1 = load ptr, ptr %m_info.i.i, align 8
  %cmp.not.i = icmp eq ptr %1, null
  br i1 %cmp.not.i, label %_ZNK9func_decl9is_skolemEv.exit, label %land.rhs.i

land.rhs.i:                                       ; preds = %if.then
  %m_skolem.i.i = getelementptr inbounds i8, ptr %1, i64 17
  %bf.load.i.i = load i16, ptr %m_skolem.i.i, align 1
  %2 = and i16 %bf.load.i.i, 256
  %bf.cast.i.i = icmp ne i16 %2, 0
  br label %_ZNK9func_decl9is_skolemEv.exit

_ZNK9func_decl9is_skolemEv.exit:                  ; preds = %if.then, %land.rhs.i
  %3 = phi i1 [ false, %if.then ], [ %bf.cast.i.i, %land.rhs.i ]
  %4 = load ptr, ptr %m_env, align 8
  store ptr null, ptr %ref.tmp, align 8
  %call5 = invoke noundef nonnull align 8 dereferenceable(8) ptr @_Z11ast_smt2_ppRSoRK6symbolbR19smt2_pp_environmentRK10params_ref(ptr noundef nonnull align 8 dereferenceable(8) %call8, ptr noundef nonnull align 8 dereferenceable(8) %m_name.i4, i1 noundef zeroext %3, ptr noundef nonnull align 8 dereferenceable(56) %4, ptr noundef nonnull align 8 dereferenceable(8) %ref.tmp)
          to label %invoke.cont unwind label %lpad

invoke.cont:                                      ; preds = %_ZNK9func_decl9is_skolemEv.exit
  %call7 = invoke noundef nonnull align 8 dereferenceable(8) ptr @_ZStlsISt11char_traitsIcEERSt13basic_ostreamIcT_ES5_PKc(ptr noundef nonnull align 8 dereferenceable(8) %call5, ptr noundef nonnull @.str.5)
          to label %invoke.cont6 unwind label %lpad

invoke.cont6:                                     ; preds = %invoke.cont
  call void @_ZN10params_refD1Ev(ptr noundef nonnull align 8 dereferenceable(8) %ref.tmp) #16
  br label %if.end

lpad:                                             ; preds = %invoke.cont, %_ZNK9func_decl9is_skolemEv.exit
  %5 = landingpad { ptr, i32 }
          cleanup
  call void @_ZN10params_refD1Ev(ptr noundef nonnull align 8 dereferenceable(8) %ref.tmp) #16
  resume { ptr, i32 } %5

if.else:                                          ; preds = %entry
  %agg.tmp.sroa.0.0.copyload = load ptr, ptr %m_name.i4, align 8
  %6 = ptrtoint ptr %agg.tmp.sroa.0.0.copyload to i64
  %and.i = and i64 %6, 7
  %cmp.i = icmp eq i64 %and.i, 0
  br i1 %cmp.i, label %if.then.i, label %if.else5.i

if.then.i:                                        ; preds = %if.else
  %tobool.not.i = icmp eq ptr %agg.tmp.sroa.0.0.copyload, null
  br i1 %tobool.not.i, label %if.else.i, label %if.then2.i

if.then2.i:                                       ; preds = %if.then.i
  %call.i = tail call noundef nonnull align 8 dereferenceable(8) ptr @_ZStlsISt11char_traitsIcEERSt13basic_ostreamIcT_ES5_PKc(ptr noundef nonnull align 8 dereferenceable(8) %call8, ptr noundef nonnull %agg.tmp.sroa.0.0.copyload)
  br label %_ZlsRSo6symbol.exit

if.else.i:                                        ; preds = %if.then.i
  %call4.i = tail call noundef nonnull align 8 dereferenceable(8) ptr @_ZStlsISt11char_traitsIcEERSt13basic_ostreamIcT_ES5_PKc(ptr noundef nonnull align 8 dereferenceable(8) %call8, ptr noundef nonnull @.str.7)
  br label %_ZlsRSo6symbol.exit

if.else5.i:                                       ; preds = %if.else
  %call6.i = tail call noundef nonnull align 8 dereferenceable(8) ptr @_ZStlsISt11char_traitsIcEERSt13basic_ostreamIcT_ES5_PKc(ptr noundef nonnull align 8 dereferenceable(8) %call8, ptr noundef nonnull @.str.8)
  %shr.i = lshr i64 %6, 3
  %conv.i = trunc i64 %shr.i to i32
  %call8.i = tail call noundef nonnull align 8 dereferenceable(8) ptr @_ZNSolsEi(ptr noundef nonnull align 8 dereferenceable(8) %call6.i, i32 noundef %conv.i)
  br label %_ZlsRSo6symbol.exit

_ZlsRSo6symbol.exit:                              ; preds = %if.then2.i, %if.else.i, %if.else5.i
  %call11 = tail call noundef nonnull align 8 dereferenceable(8) ptr @_ZStlsISt11char_traitsIcEERSt13basic_ostreamIcT_ES5_PKc(ptr noundef nonnull align 8 dereferenceable(8) %call8, ptr noundef nonnull @.str.5)
  br label %if.end

if.end:                                           ; preds = %_ZlsRSo6symbol.exit, %invoke.cont6
  ret void
}